; ModuleID = 'source-C-CXX/24/466.cpp'
source_filename = "source-C-CXX/24/466.cpp"
target datalayout = "e-m:e-p270:32:32-p271:32:32-p272:64:64-i64:64-f80:128-n8:16:32:64-S128"
target triple = "x86_64-pc-linux-gnu"

%"class.std::ios_base::Init" = type { i8 }
%"class.std::basic_istream" = type { i32 (...)**, i64, %"class.std::basic_ios" }
%"class.std::basic_ios" = type { %"class.std::ios_base", %"class.std::basic_ostream"*, i8, i8, %"class.std::basic_streambuf"*, %"class.std::ctype"*, %"class.std::num_put"*, %"class.std::num_get"* }
%"class.std::ios_base" = type { i32 (...)**, i64, i64, i32, i32, i32, %"struct.std::ios_base::_Callback_list"*, %"struct.std::ios_base::_Words", [8 x %"struct.std::ios_base::_Words"], i32, %"struct.std::ios_base::_Words"*, %"class.std::locale" }
%"struct.std::ios_base::_Callback_list" = type { %"struct.std::ios_base::_Callback_list"*, void (i32, %"class.std::ios_base"*, i32)*, i32, i32 }
%"struct.std::ios_base::_Words" = type { i8*, i64 }
%"class.std::locale" = type { %"class.std::locale::_Impl"* }
%"class.std::locale::_Impl" = type { i32, %"class.std::locale::facet"**, i64, %"class.std::locale::facet"**, i8** }
%"class.std::locale::facet" = type <{ i32 (...)**, i32, [4 x i8] }>
%"class.std::basic_ostream" = type { i32 (...)**, %"class.std::basic_ios" }
%"class.std::basic_streambuf" = type { i32 (...)**, i8*, i8*, i8*, i8*, i8*, i8*, %"class.std::locale" }
%"class.std::ctype" = type <{ %"class.std::locale::facet.base", [4 x i8], %struct.__locale_struct*, i8, [7 x i8], i32*, i32*, i16*, i8, [256 x i8], [256 x i8], i8, [6 x i8] }>
%"class.std::locale::facet.base" = type <{ i32 (...)**, i32 }>
%struct.__locale_struct = type { [13 x %struct.__locale_data*], i16*, i32*, i32*, [13 x i8*] }
%struct.__locale_data = type opaque
%"class.std::num_put" = type { %"class.std::locale::facet.base", [4 x i8] }
%"class.std::num_get" = type { %"class.std::locale::facet.base", [4 x i8] }

@_ZStL8__ioinit = internal global %"class.std::ios_base::Init" zeroinitializer, align 1
@__dso_handle = external hidden global i8
@_ZSt3cin = external global %"class.std::basic_istream", align 8
@_ZSt4cout = external global %"class.std::basic_ostream", align 8
@.str = private unnamed_addr constant [2 x i8] c"1\00", align 1
@llvm.global_ctors = appending global [1 x { i32, void ()*, i8* }] [{ i32, void ()*, i8* } { i32 65535, void ()* @_GLOBAL__sub_I_466.cpp, i8* null }]

declare void @_ZNSt8ios_base4InitC1Ev(%"class.std::ios_base::Init"* nonnull align 1 dereferenceable(1)) unnamed_addr #0

; Function Attrs: nounwind
declare void @_ZNSt8ios_base4InitD1Ev(%"class.std::ios_base::Init"* nonnull align 1 dereferenceable(1)) unnamed_addr #1

; Function Attrs: nofree nounwind
declare i32 @__cxa_atexit(void (i8*)*, i8*, i8*) local_unnamed_addr #2

; Function Attrs: mustprogress norecurse sspstrong uwtable
define dso_local i32 @main() local_unnamed_addr #3 {
  %1 = alloca i8, align 1
  %2 = alloca i32, align 4
  %3 = alloca [1000 x i8], align 16
  %4 = alloca [1000 x i8], align 16
  %5 = bitcast i32* %2 to i8*
  call void @llvm.lifetime.start.p0i8(i64 4, i8* nonnull %5) #9
  %6 = call nonnull align 8 dereferenceable(16) %"class.std::basic_istream"* @_ZNSirsERi(%"class.std::basic_istream"* nonnull align 8 dereferenceable(16) @_ZSt3cin, i32* nonnull align 4 dereferenceable(4) %2)
  %7 = load i32, i32* %2, align 4, !tbaa !5
  %8 = icmp eq i32 %7, 0
  br i1 %8, label %9, label %11

9:                                                ; preds = %0
  %10 = call nonnull align 8 dereferenceable(8) %"class.std::basic_ostream"* @_ZSt16__ostream_insertIcSt11char_traitsIcEERSt13basic_ostreamIT_T0_ES6_PKS3_l(%"class.std::basic_ostream"* nonnull align 8 dereferenceable(8) @_ZSt4cout, i8* nonnull getelementptr inbounds ([2 x i8], [2 x i8]* @.str, i64 0, i64 0), i64 1)
  br label %65

11:                                               ; preds = %0
  %12 = getelementptr inbounds [1000 x i8], [1000 x i8]* %3, i64 0, i64 0
  call void @llvm.lifetime.start.p0i8(i64 1000, i8* nonnull %12) #9
  call void @llvm.memset.p0i8.i64(i8* noundef nonnull align 16 dereferenceable(1000) %12, i8 0, i64 1000, i1 false)
  store i8 50, i8* %12, align 16
  %13 = getelementptr inbounds [1000 x i8], [1000 x i8]* %4, i64 0, i64 0
  %14 = icmp sgt i32 %7, 1
  br i1 %14, label %15, label %17

15:                                               ; preds = %11
  %16 = add nsw i32 %7, -1
  br label %22

17:                                               ; preds = %49, %11
  %18 = call i64 @strlen(i8* noundef nonnull %12) #10
  %19 = trunc i64 %18 to i32
  %20 = add i32 %19, -1
  %21 = icmp sgt i32 %20, -1
  br i1 %21, label %57, label %56

22:                                               ; preds = %15, %49
  %23 = phi i32 [ %54, %49 ], [ 0, %15 ]
  call void @llvm.lifetime.start.p0i8(i64 1000, i8* nonnull %13) #9
  %24 = call i64 @strlen(i8* noundef nonnull %12) #10
  %25 = icmp eq i64 %24, 0
  br i1 %25, label %49, label %26

26:                                               ; preds = %22, %26
  %27 = phi i64 [ %38, %26 ], [ 0, %22 ]
  %28 = phi i8 [ %35, %26 ], [ 0, %22 ]
  %29 = getelementptr inbounds [1000 x i8], [1000 x i8]* %3, i64 0, i64 %27
  %30 = load i8, i8* %29, align 1, !tbaa !9
  %31 = shl i8 %30, 1
  %32 = add i8 %28, -96
  %33 = add i8 %32, %31
  %34 = getelementptr inbounds [1000 x i8], [1000 x i8]* %4, i64 0, i64 %27
  %35 = sdiv i8 %33, 10
  %36 = srem i8 %33, 10
  %37 = add nsw i8 %36, 48
  store i8 %37, i8* %34, align 1, !tbaa !9
  %38 = add nuw nsw i64 %27, 1
  %39 = icmp eq i64 %38, %24
  br i1 %39, label %40, label %26, !llvm.loop !10

40:                                               ; preds = %26
  %41 = and i64 %24, 4294967295
  %42 = add i8 %33, 9
  %43 = icmp ult i8 %42, 19
  br i1 %43, label %49, label %44

44:                                               ; preds = %40
  %45 = add nsw i8 %35, 48
  %46 = add i64 %24, 1
  %47 = and i64 %46, 4294967295
  %48 = getelementptr inbounds [1000 x i8], [1000 x i8]* %4, i64 0, i64 %47
  store i8 0, i8* %48, align 1, !tbaa !9
  br label %49

49:                                               ; preds = %22, %40, %44
  %50 = phi i64 [ %41, %44 ], [ %41, %40 ], [ 0, %22 ]
  %51 = phi i8 [ %45, %44 ], [ 0, %40 ], [ 0, %22 ]
  %52 = getelementptr inbounds [1000 x i8], [1000 x i8]* %4, i64 0, i64 %50
  store i8 %51, i8* %52, align 1
  %53 = call i8* @strcpy(i8* noundef nonnull %12, i8* noundef nonnull %13) #9
  call void @llvm.lifetime.end.p0i8(i64 1000, i8* nonnull %13) #9
  %54 = add nuw nsw i32 %23, 1
  %55 = icmp eq i32 %54, %16
  br i1 %55, label %17, label %22, !llvm.loop !12

56:                                               ; preds = %57, %17
  call void @llvm.lifetime.end.p0i8(i64 1000, i8* nonnull %12) #9
  br label %65

57:                                               ; preds = %17, %57
  %58 = phi i32 [ %63, %57 ], [ %20, %17 ]
  %59 = zext i32 %58 to i64
  %60 = getelementptr inbounds [1000 x i8], [1000 x i8]* %3, i64 0, i64 %59
  %61 = load i8, i8* %60, align 1, !tbaa !9
  call void @llvm.lifetime.start.p0i8(i64 1, i8* nonnull %1)
  store i8 %61, i8* %1, align 1, !tbaa !9
  %62 = call nonnull align 8 dereferenceable(8) %"class.std::basic_ostream"* @_ZSt16__ostream_insertIcSt11char_traitsIcEERSt13basic_ostreamIT_T0_ES6_PKS3_l(%"class.std::basic_ostream"* nonnull align 8 dereferenceable(8) @_ZSt4cout, i8* nonnull %1, i64 1)
  call void @llvm.lifetime.end.p0i8(i64 1, i8* nonnull %1)
  %63 = add nsw i32 %58, -1
  %64 = icmp sgt i32 %58, 0
  br i1 %64, label %57, label %56, !llvm.loop !13

65:                                               ; preds = %56, %9
  call void @llvm.lifetime.end.p0i8(i64 4, i8* nonnull %5) #9
  ret i32 0
}

; Function Attrs: argmemonly mustprogress nofree nosync nounwind willreturn
declare void @llvm.lifetime.start.p0i8(i64 immarg, i8* nocapture) #4

declare nonnull align 8 dereferenceable(16) %"class.std::basic_istream"* @_ZNSirsERi(%"class.std::basic_istream"* nonnull align 8 dereferenceable(16), i32* nonnull align 4 dereferenceable(4)) local_unnamed_addr #0

; Function Attrs: argmemonly mustprogress nofree nounwind willreturn writeonly
declare void @llvm.memset.p0i8.i64(i8* nocapture writeonly, i8, i64, i1 immarg) #5

; Function Attrs: argmemonly mustprogress nofree nounwind readonly willreturn
declare i64 @strlen(i8* nocapture) local_unnamed_addr #6

; Function Attrs: argmemonly mustprogress nofree nounwind willreturn
declare i8* @strcpy(i8* noalias returned writeonly, i8* noalias nocapture readonly) local_unnamed_addr #7

; Function Attrs: argmemonly mustprogress nofree nosync nounwind willreturn
declare void @llvm.lifetime.end.p0i8(i64 immarg, i8* nocapture) #4

declare nonnull align 8 dereferenceable(8) %"class.std::basic_ostream"* @_ZSt16__ostream_insertIcSt11char_traitsIcEERSt13basic_ostreamIT_T0_ES6_PKS3_l(%"class.std::basic_ostream"* nonnull align 8 dereferenceable(8), i8*, i64) local_unnamed_addr #0

; Function Attrs: sspstrong uwtable
define internal void @_GLOBAL__sub_I_466.cpp() #8 section ".text.startup" {
  tail call void @_ZNSt8ios_base4InitC1Ev(%"class.std::ios_base::Init"* nonnull align 1 dereferenceable(1) @_ZStL8__ioinit)
  %1 = tail call i32 @__cxa_atexit(void (i8*)* bitcast (void (%"class.std::ios_base::Init"*)* @_ZNSt8ios_base4InitD1Ev to void (i8*)*), i8* getelementptr inbounds (%"class.std::ios_base::Init", %"class.std::ios_base::Init"* @_ZStL8__ioinit, i64 0, i32 0), i8* nonnull @__dso_handle) #9
  ret void
}


!llvm.module.flags = !{!0, !1, !2, !3}
!llvm.ident = !{!4}

!0 = !{i32 1, !"wchar_size", i32 4}
!1 = !{i32 7, !"PIC Level", i32 2}
!2 = !{i32 7, !"PIE Level", i32 2}
!3 = !{i32 7, !"uwtable", i32 1}
!4 = !{!"clang version 13.0.0"}
!5 = !{!6, !6, i64 0}
!6 = !{!"int", !7, i64 0}
!7 = !{!"omnipotent char", !8, i64 0}
!8 = !{!"Simple C++ TBAA"}
!9 = !{!7, !7, i64 0}
!10 = distinct !{!10, !11}
!11 = !{!"llvm.loop.mustprogress"}
!12 = distinct !{!12, !11}
!13 = distinct !{!13, !11}
